(S'36224f4cbbff072ccf977cf431e686dd'
p1
(ihappydoclib.parseinfo.moduleinfo
ModuleInfo
p2
(dp3
S'_namespaces'
p4
((dp5
S'ActionForm'
p6
(ihappydoclib.parseinfo.classinfo
ClassInfo
p7
(dp8
g4
((dp9
(dp10
S'edit'
p11
(ihappydoclib.parseinfo.functioninfo
FunctionInfo
p12
(dp13
g4
((dp14
(dp15
tp16
sS'_exception_info'
p17
(dp18
sS'_parameter_names'
p19
(S'self'
p20
tp21
sS'_parameter_info'
p22
(dp23
g20
(NNNtp24
ssS'_filename'
p25
S'npyscreen/ActionForm.py'
p26
sS'_docstring'
p27
S''
sS'_name'
p28
g11
sS'_parent'
p29
g7
sS'_comment_info'
p30
(dp31
sS'_configuration_values'
p32
(dp33
sS'_class_info'
p34
g14
sS'_function_info'
p35
g15
sS'_comments'
p36
S''
sbsS'on_cancel'
p37
(ihappydoclib.parseinfo.functioninfo
FunctionInfo
p38
(dp39
g4
((dp40
(dp41
tp42
sg17
(dp43
sg19
(S'self'
p44
tp45
sg22
(dp46
g44
(NNNtp47
ssg25
g26
sg27
S''
sg28
g37
sg29
g7
sg30
g31
sg32
(dp48
sg34
g40
sg35
g41
sg36
S''
sbsS'find_cancel_button'
p49
(ihappydoclib.parseinfo.functioninfo
FunctionInfo
p50
(dp51
g4
((dp52
(dp53
tp54
sg17
(dp55
sg19
(S'self'
p56
tp57
sg22
(dp58
g56
(NNNtp59
ssg25
g26
sg27
S''
sg28
g49
sg29
g7
sg30
g31
sg32
(dp60
sg34
g52
sg35
g53
sg36
S''
sbsS'set_up_exit_condition_handlers'
p61
(ihappydoclib.parseinfo.functioninfo
FunctionInfo
p62
(dp63
g4
((dp64
(dp65
tp66
sg17
(dp67
sg19
(S'self'
p68
tp69
sg22
(dp70
g68
(NNNtp71
ssg25
g26
sg27
S''
sg28
g61
sg29
g7
sg30
g31
sg32
(dp72
sg34
g64
sg35
g65
sg36
S''
sbsS'on_ok'
p73
(ihappydoclib.parseinfo.functioninfo
FunctionInfo
p74
(dp75
g4
((dp76
(dp77
tp78
sg17
(dp79
sg19
(S'self'
p80
tp81
sg22
(dp82
g80
(NNNtp83
ssg25
g26
sg27
S''
sg28
g73
sg29
g7
sg30
g31
sg32
(dp84
sg34
g76
sg35
g77
sg36
S''
sbstp85
sg25
g26
sg27
S''
sS'_class_member_info'
p86
(lp87
sg28
g6
sg29
g2
sg30
g31
sS'_base_class_info'
p88
(lp89
sg32
(dp90
sg34
g9
sg35
g10
sg36
S''
sbs(dp91
S'testme'
p92
(ihappydoclib.parseinfo.functioninfo
FunctionInfo
p93
(dp94
g4
((dp95
(dp96
tp97
sg17
(dp98
sg19
(S'sa'
p99
tp100
sg22
(dp101
g99
(NNNtp102
ssg25
g26
sg27
S''
sg28
g92
sg29
g2
sg30
g31
sg32
(dp103
sg34
g95
sg35
g96
sg36
S''
sbstp104
sS'_import_info'
p105
(ihappydoclib.parseinfo.imports
ImportInfo
p106
(dp107
S'_named_imports'
p108
(dp109
sS'_straight_imports'
p110
(lp111
sbsg25
g26
sg27
S''
sg28
S'ActionForm'
p112
sg29
Nsg30
g31
sg32
(dp113
S'include_comments'
p114
I1
sS'cacheFilePrefix'
p115
S'.happydoc.'
p116
sS'useCache'
p117
I1
sS'docStringFormat'
p118
S'StructuredText'
p119
ssg34
g5
sg35
g91
sg36
S''
sbt.