(S'2bf85c56cf1461f594a1c7beea62ec2c'
p1
(ihappydoclib.parseinfo.moduleinfo
ModuleInfo
p2
(dp3
S'_namespaces'
p4
((dp5
S'ComboBox'
p6
(ihappydoclib.parseinfo.classinfo
ClassInfo
p7
(dp8
g4
((dp9
(dp10
S'edit'
p11
(ihappydoclib.parseinfo.functioninfo
FunctionInfo
p12
(dp13
g4
((dp14
(dp15
tp16
sS'_exception_info'
p17
(dp18
sS'_parameter_names'
p19
(S'self'
p20
tp21
sS'_parameter_info'
p22
(dp23
g20
(NNNtp24
ssS'_filename'
p25
S'npyscreen/combobox.py'
p26
sS'_docstring'
p27
S''
sS'_name'
p28
g11
sS'_parent'
p29
g7
sS'_comment_info'
p30
(dp31
sS'_configuration_values'
p32
(dp33
sS'_class_info'
p34
g14
sS'_function_info'
p35
g15
sS'_comments'
p36
S''
sbsS'update'
p37
(ihappydoclib.parseinfo.functioninfo
FunctionInfo
p38
(dp39
g4
((dp40
(dp41
tp42
sg17
(dp43
sg19
(S'self'
p44
S'**keywords'
p45
tp46
sg22
(dp47
g44
(NNNtp48
sg45
(NNNtp49
ssg25
g26
sg27
S''
sg28
g37
sg29
g7
sg30
g31
sg32
(dp50
sg34
g40
sg35
g41
sg36
S''
sbsS'set_up_handlers'
p51
(ihappydoclib.parseinfo.functioninfo
FunctionInfo
p52
(dp53
g4
((dp54
(dp55
tp56
sg17
(dp57
sg19
(S'self'
p58
tp59
sg22
(dp60
g58
(NNNtp61
ssg25
g26
sg27
S''
sg28
g51
sg29
g7
sg30
g31
sg32
(dp62
sg34
g54
sg35
g55
sg36
S''
sbsS'h_change_value'
p63
(ihappydoclib.parseinfo.functioninfo
FunctionInfo
p64
(dp65
g4
((dp66
(dp67
tp68
sg17
(dp69
sg19
(S'self'
p70
S'input'
p71
tp72
sg22
(dp73
g71
(NNNtp74
sg70
(NNNtp75
ssg25
g26
sg27
S''
sg28
g63
sg29
g7
sg30
g31
sg32
(dp76
sg34
g66
sg35
g67
sg36
S''
sbsS'_print'
p77
(ihappydoclib.parseinfo.functioninfo
FunctionInfo
p78
(dp79
g4
((dp80
(dp81
tp82
sg17
(dp83
sg19
(S'self'
p84
tp85
sg22
(dp86
g84
(NNNtp87
ssg25
g26
sg27
S''
sg28
g77
sg29
g7
sg30
g31
sg32
(dp88
sg34
g80
sg35
g81
sg36
S''
sbsS'display_value'
p89
(ihappydoclib.parseinfo.functioninfo
FunctionInfo
p90
(dp91
g4
((dp92
(dp93
tp94
sg17
(dp95
sg19
(S'self'
p96
S'vl'
p97
tp98
sg22
(dp99
g96
(NNNtp100
sg97
(NNNtp101
ssg25
g26
sg27
S''
sg28
g89
sg29
g7
sg30
g31
sg32
(dp102
sg34
g92
sg35
g93
sg36
S''
sbsS'__init__'
p103
(ihappydoclib.parseinfo.functioninfo
FunctionInfo
p104
(dp105
g4
((dp106
(dp107
tp108
sg17
(dp109
sg19
(S'self'
p110
S'screen'
p111
S'value'
p112
S'values'
p113
S'**keywords'
p114
tp115
sg22
(dp116
g114
(NNNtp117
sg110
(NNNtp118
sg113
(I1
NNtp119
sg111
(NNNtp120
sg112
(I1
NNtp121
ssg25
g26
sg27
S''
sg28
g103
sg29
g7
sg30
g31
sg32
(dp122
sg34
g106
sg35
g107
sg36
S''
sbstp123
sg25
g26
sg27
S''
sS'_class_member_info'
p124
(lp125
sg28
g6
sg29
g2
sg30
g31
sS'_base_class_info'
p126
(lp127
sg32
(dp128
sg34
g9
sg35
g10
sg36
S''
sbsS'TitleCombo'
p129
(ihappydoclib.parseinfo.classinfo
ClassInfo
p130
(dp131
g4
((dp132
(dp133
S'set_values'
p134
(ihappydoclib.parseinfo.functioninfo
FunctionInfo
p135
(dp136
g4
((dp137
(dp138
tp139
sg17
(dp140
sg19
(S'self'
p141
S'values'
p142
tp143
sg22
(dp144
g141
(NNNtp145
sg142
(NNNtp146
ssg25
g26
sg27
S''
sg28
g134
sg29
g130
sg30
g31
sg32
(dp147
sg34
g137
sg35
g138
sg36
S''
sbsS'del_values'
p148
(ihappydoclib.parseinfo.functioninfo
FunctionInfo
p149
(dp150
g4
((dp151
(dp152
tp153
sg17
(dp154
sg19
(S'self'
p155
tp156
sg22
(dp157
g155
(NNNtp158
ssg25
g26
sg27
S''
sg28
g148
sg29
g130
sg30
g31
sg32
(dp159
sg34
g151
sg35
g152
sg36
S''
sbsS'get_values'
p160
(ihappydoclib.parseinfo.functioninfo
FunctionInfo
p161
(dp162
g4
((dp163
(dp164
tp165
sg17
(dp166
sg19
(S'self'
p167
tp168
sg22
(dp169
g167
(NNNtp170
ssg25
g26
sg27
S''
sg28
g160
sg29
g130
sg30
g31
sg32
(dp171
sg34
g163
sg35
g164
sg36
S''
sbstp172
sg25
g26
sg27
S''
sg124
(lp173
sg28
g129
sg29
g2
sg30
g31
sg126
(lp174
sg32
(dp175
sg34
g132
sg35
g133
sg36
S''
sbs(dp176
S'testing'
p177
(ihappydoclib.parseinfo.functioninfo
FunctionInfo
p178
(dp179
g4
((dp180
(dp181
tp182
sg17
(dp183
sg19
(S'src'
p184
tp185
sg22
(dp186
g184
(NNNtp187
ssg25
g26
sg27
S''
sg28
g177
sg29
g2
sg30
g31
sg32
(dp188
sg34
g180
sg35
g181
sg36
S''
sbstp189
sS'_import_info'
p190
(ihappydoclib.parseinfo.imports
ImportInfo
p191
(dp192
S'_named_imports'
p193
(dp194
sS'_straight_imports'
p195
(lp196
sbsg25
g26
sg27
S''
sg28
S'combobox'
p197
sg29
Nsg30
g31
sg32
(dp198
S'include_comments'
p199
I1
sS'cacheFilePrefix'
p200
S'.happydoc.'
p201
sS'useCache'
p202
I1
sS'docStringFormat'
p203
S'StructuredText'
p204
ssg34
g5
sg35
g176
sg36
S''
sbt.