(S'8b93a25b7cd25c540cd7c9523a4dc0bc'
p1
(ihappydoclib.parseinfo.moduleinfo
ModuleInfo
p2
(dp3
S'_namespaces'
p4
((dp5
S'DocWrapper'
p6
(ihappydoclib.parseinfo.classinfo
ClassInfo
p7
(dp8
g4
((dp9
(dp10
S'wrap'
p11
(ihappydoclib.parseinfo.functioninfo
FunctionInfo
p12
(dp13
g4
((dp14
(dp15
tp16
sS'_exception_info'
p17
(dp18
sS'_parameter_names'
p19
(S'self'
p20
S'text'
p21
tp22
sS'_parameter_info'
p23
(dp24
g21
(NNNtp25
sg20
(NNNtp26
ssS'_filename'
p27
S'/Users/nicholas/mnpyscreen/npyscreen/editmultiline.py'
p28
sS'_docstring'
p29
S"Override textwrap.TextWrapper to process 'text' properly when\n        multiple paragraphs present"
p30
sS'_name'
p31
g11
sS'_parent'
p32
g7
sS'_comment_info'
p33
(dp34
(S'MultiLineEdit'
p35
S'set_up_handlers'
tp36
S' \n'
p37
s(g35
S'h_add_nl'
tp38
S' Bug somewhere here when dealing with empty lines.\n'
p39
s(S'DocWrapper'
S'wrap'
tp40
S' Code from http://aspn.activestate.com/ASPN/Cookbook/Python/Recipe/358228\n'
p41
ssS'_configuration_values'
p42
(dp43
sS'_class_info'
p44
g14
sS'_function_info'
p45
g15
sS'_comments'
p46
g41
sbstp47
sg27
g28
sg29
S'Wrap text in a document, processing each paragraph individually'
p48
sS'_class_member_info'
p49
(lp50
sg31
g6
sg32
g2
sg33
g34
sS'_base_class_info'
p51
(lp52
S'textwrap.TextWrapper'
p53
asg42
(dp54
sg44
g9
sg45
g10
sg46
S''
sbsS'MultiLineEdit'
p55
(ihappydoclib.parseinfo.classinfo
ClassInfo
p56
(dp57
g4
((dp58
(dp59
S'h_delete_right'
p60
(ihappydoclib.parseinfo.functioninfo
FunctionInfo
p61
(dp62
g4
((dp63
(dp64
tp65
sg17
(dp66
sg19
(S'self'
p67
S'input'
p68
tp69
sg23
(dp70
g68
(NNNtp71
sg67
(NNNtp72
ssg27
g28
sg29
S''
sg31
g60
sg32
g56
sg33
g34
sg42
(dp73
sg44
g63
sg45
g64
sg46
S''
sbsS'h_cursor_right'
p74
(ihappydoclib.parseinfo.functioninfo
FunctionInfo
p75
(dp76
g4
((dp77
(dp78
tp79
sg17
(dp80
sg19
(S'self'
p81
S'input'
p82
tp83
sg23
(dp84
g82
(NNNtp85
sg81
(NNNtp86
ssg27
g28
sg29
S''
sg31
g74
sg32
g56
sg33
g34
sg42
(dp87
sg44
g77
sg45
g78
sg46
S''
sbsS'calculate_area_needed'
p88
(ihappydoclib.parseinfo.functioninfo
FunctionInfo
p89
(dp90
g4
((dp91
(dp92
tp93
sg17
(dp94
sg19
(S'self'
p95
tp96
sg23
(dp97
g95
(NNNtp98
ssg27
g28
sg29
S''
sg31
g88
sg32
g56
sg33
g34
sg42
(dp99
sg44
g91
sg45
g92
sg46
S''
sbsS't_input_isprint'
p100
(ihappydoclib.parseinfo.functioninfo
FunctionInfo
p101
(dp102
g4
((dp103
(dp104
tp105
sg17
(dp106
sg19
(S'self'
p107
S'input'
p108
tp109
sg23
(dp110
g108
(NNNtp111
sg107
(NNNtp112
ssg27
g28
sg29
S''
sg31
g100
sg32
g56
sg33
g34
sg42
(dp113
sg44
g103
sg45
g104
sg46
S''
sbsS'h_line_down'
p114
(ihappydoclib.parseinfo.functioninfo
FunctionInfo
p115
(dp116
g4
((dp117
(dp118
tp119
sg17
(dp120
sg19
(S'self'
p121
S'input'
p122
tp123
sg23
(dp124
g122
(NNNtp125
sg121
(NNNtp126
ssg27
g28
sg29
S''
sg31
g114
sg32
g56
sg33
g34
sg42
(dp127
sg44
g117
sg45
g118
sg46
S''
sbsS'update'
p128
(ihappydoclib.parseinfo.functioninfo
FunctionInfo
p129
(dp130
g4
((dp131
(dp132
tp133
sg17
(dp134
sg19
(S'self'
p135
S'clear'
p136
tp137
sg23
(dp138
g135
(NNNtp139
sg136
(I1
S'True'
Ntp140
ssg27
g28
sg29
S''
sg31
g128
sg32
g56
sg33
g34
sg42
(dp141
sg44
g131
sg45
g132
sg46
S''
sbsS'set_up_handlers'
p142
(ihappydoclib.parseinfo.functioninfo
FunctionInfo
p143
(dp144
g4
((dp145
(dp146
tp147
sg17
(dp148
sg19
(S'self'
p149
tp150
sg23
(dp151
g149
(NNNtp152
ssg27
g28
sg29
S''
sg31
g142
sg32
g56
sg33
g34
sg42
(dp153
sg44
g145
sg45
g146
sg46
g37
sbsS'get_value_as_list'
p154
(ihappydoclib.parseinfo.functioninfo
FunctionInfo
p155
(dp156
g4
((dp157
(dp158
tp159
sg17
(dp160
sg19
(S'self'
p161
S'upto'
p162
S'keepends'
p163
tp164
sg23
(dp165
g162
(I1
S'None'
Ntp166
sg161
(NNNtp167
sg163
(I1
S'False'
Ntp168
ssg27
g28
sg29
S''
sg31
g154
sg32
g56
sg33
g34
sg42
(dp169
sg44
g157
sg45
g158
sg46
S''
sbsS'reformat_preserve_nl'
p170
(ihappydoclib.parseinfo.functioninfo
FunctionInfo
p171
(dp172
g4
((dp173
(dp174
tp175
sg17
(dp176
sg19
(S'self'
p177
S'*ignorethese'
p178
tp179
sg23
(dp180
g178
(NNNtp181
sg177
(NNNtp182
ssg27
g28
sg29
S''
sg31
g170
sg32
g56
sg33
g34
sg42
(dp183
sg44
g173
sg45
g174
sg46
S''
sbsS'translate_cursor'
p184
(ihappydoclib.parseinfo.functioninfo
FunctionInfo
p185
(dp186
g4
((dp187
(dp188
tp189
sg17
(dp190
sg19
(S'self'
p191
S'y'
tp192
sg23
(dp193
S'y'
(NNNtp194
sg191
(NNNtp195
ssg27
g28
sg29
S"Translate cursor position from point in a str to y,x on in widget (you'll need to add in rely, relx yourself)"
p196
sg31
g184
sg32
g56
sg33
g34
sg42
(dp197
sg44
g187
sg45
g188
sg46
S''
sbsS'h_line_up'
p198
(ihappydoclib.parseinfo.functioninfo
FunctionInfo
p199
(dp200
g4
((dp201
(dp202
tp203
sg17
(dp204
sg19
(S'self'
p205
S'input'
p206
tp207
sg23
(dp208
g206
(NNNtp209
sg205
(NNNtp210
ssg27
g28
sg29
S''
sg31
g198
sg32
g56
sg33
g34
sg42
(dp211
sg44
g201
sg45
g202
sg46
S''
sbsS'h_cursor_left'
p212
(ihappydoclib.parseinfo.functioninfo
FunctionInfo
p213
(dp214
g4
((dp215
(dp216
tp217
sg17
(dp218
sg19
(S'self'
p219
S'input'
p220
tp221
sg23
(dp222
g220
(NNNtp223
sg219
(NNNtp224
ssg27
g28
sg29
S''
sg31
g212
sg32
g56
sg33
g34
sg42
(dp225
sg44
g215
sg45
g216
sg46
S''
sbsS'full_reformat'
p226
(ihappydoclib.parseinfo.functioninfo
FunctionInfo
p227
(dp228
g4
((dp229
(dp230
tp231
sg17
(dp232
sg19
(S'self'
p233
S'*args'
p234
tp235
sg23
(dp236
g234
(NNNtp237
sg233
(NNNtp238
ssg27
g28
sg29
S''
sg31
g226
sg32
g56
sg33
g34
sg42
(dp239
sg44
g229
sg45
g230
sg46
S''
sbsS'h_add_nl'
p240
(ihappydoclib.parseinfo.functioninfo
FunctionInfo
p241
(dp242
g4
((dp243
(dp244
tp245
sg17
(dp246
sg19
(S'self'
p247
S'input'
p248
tp249
sg23
(dp250
g248
(NNNtp251
sg247
(NNNtp252
ssg27
g28
sg29
S''
sg31
g240
sg32
g56
sg33
g34
sg42
(dp253
sg44
g243
sg45
g244
sg46
g39
sbsS'h_addch'
p254
(ihappydoclib.parseinfo.functioninfo
FunctionInfo
p255
(dp256
g4
((dp257
(dp258
tp259
sg17
(dp260
sg19
(S'self'
p261
S'input'
p262
tp263
sg23
(dp264
g262
(NNNtp265
sg261
(NNNtp266
ssg27
g28
sg29
S'Add printable characters.  However, do NOT add newlines with this function'
p267
sg31
g254
sg32
g56
sg33
g34
sg42
(dp268
sg44
g257
sg45
g258
sg46
S''
sbsS'h_delete_left'
p269
(ihappydoclib.parseinfo.functioninfo
FunctionInfo
p270
(dp271
g4
((dp272
(dp273
tp274
sg17
(dp275
sg19
(S'self'
p276
S'input'
p277
tp278
sg23
(dp279
g277
(NNNtp280
sg276
(NNNtp281
ssg27
g28
sg29
S''
sg31
g269
sg32
g56
sg33
g34
sg42
(dp282
sg44
g272
sg45
g273
sg46
S''
sbsS'__init__'
p283
(ihappydoclib.parseinfo.functioninfo
FunctionInfo
p284
(dp285
g4
((dp286
(dp287
tp288
sg17
(dp289
sg19
(S'self'
p290
S'screen'
p291
S'autowrap'
p292
S'slow_scroll'
p293
S'scroll_exit'
p294
S'value'
p295
S'**keywords'
p296
tp297
sg23
(dp298
g290
(NNNtp299
sg292
(I1
S'True'
Ntp300
sg295
(I1
S'None'
Ntp301
sg296
(NNNtp302
sg291
(NNNtp303
sg294
(I1
S'True'
Ntp304
sg293
(I1
S'True'
Ntp305
ssg27
g28
sg29
S''
sg31
g283
sg32
g56
sg33
g34
sg42
(dp306
sg44
g286
sg45
g287
sg46
S''
sbstp307
sg27
g28
sg29
S''
sg49
(lp308
sg31
g55
sg32
g2
sg33
g34
sg51
(lp309
S'widget.Widget'
p310
asg42
(dp311
sg44
g58
sg45
g59
sg46
S''
sbs(dp312
S'testme'
p313
(ihappydoclib.parseinfo.functioninfo
FunctionInfo
p314
(dp315
g4
((dp316
(dp317
tp318
sg17
(dp319
sg19
(S'sa'
p320
tp321
sg23
(dp322
g320
(NNNtp323
ssg27
g28
sg29
S''
sg31
g313
sg32
g2
sg33
g34
sg42
(dp324
sg44
g316
sg45
g317
sg46
S''
sbstp325
sS'_import_info'
p326
(ihappydoclib.parseinfo.imports
ImportInfo
p327
(dp328
S'_named_imports'
p329
(dp330
sS'_straight_imports'
p331
(lp332
sbsg27
g28
sg29
S''
sg31
S'editmultiline'
p333
sg32
Nsg33
g34
sg42
(dp334
S'include_comments'
p335
I1
sS'cacheFilePrefix'
p336
S'.happydoc.'
p337
sS'useCache'
p338
I1
sS'docStringFormat'
p339
S'StructuredText'
p340
ssg44
g5
sg45
g312
sg46
S''
sbt.