(S'39bf36177ab4beafafce7f5aac8a9beb'
p1
(ihappydoclib.parseinfo.moduleinfo
ModuleInfo
p2
(dp3
S'_namespaces'
p4
((dp5
S'Autocomplete'
p6
(ihappydoclib.parseinfo.classinfo
ClassInfo
p7
(dp8
g4
((dp9
(dp10
S'auto_complete'
p11
(ihappydoclib.parseinfo.functioninfo
FunctionInfo
p12
(dp13
g4
((dp14
(dp15
tp16
sS'_exception_info'
p17
(dp18
sS'_parameter_names'
p19
(S'self'
p20
S'input'
p21
tp22
sS'_parameter_info'
p23
(dp24
g21
(NNNtp25
sg20
(NNNtp26
ssS'_filename'
p27
S'/Users/nicholas/mnpyscreen/npyscreen/autocomplete.py'
p28
sS'_docstring'
p29
S''
sS'_name'
p30
g11
sS'_parent'
p31
g7
sS'_comment_info'
p32
(dp33
(S'Autocomplete'
S'get_choice'
tp34
S' If auto_complete needs the user to select from a list of values, this function lets them do that.\n'
p35
ssS'_configuration_values'
p36
(dp37
sS'_class_info'
p38
g14
sS'_function_info'
p39
g15
sS'_comments'
p40
S''
sbsS'get_choice'
p41
(ihappydoclib.parseinfo.functioninfo
FunctionInfo
p42
(dp43
g4
((dp44
(dp45
tp46
sg17
(dp47
sg19
(S'self'
p48
S'values'
p49
tp50
sg23
(dp51
g48
(NNNtp52
sg49
(NNNtp53
ssg27
g28
sg29
S''
sg30
g41
sg31
g7
sg32
g33
sg36
(dp54
sg38
g44
sg39
g45
sg40
g35
sbsS'set_up_handlers'
p55
(ihappydoclib.parseinfo.functioninfo
FunctionInfo
p56
(dp57
g4
((dp58
(dp59
tp60
sg17
(dp61
sg19
(S'self'
p62
tp63
sg23
(dp64
g62
(NNNtp65
ssg27
g28
sg29
S''
sg30
g55
sg31
g7
sg32
g33
sg36
(dp66
sg38
g58
sg39
g59
sg40
S''
sbstp67
sg27
g28
sg29
S'This class is fairly useless, but override auto_complete to change that.  See filename class for example'
p68
sS'_class_member_info'
p69
(lp70
sg30
g6
sg31
g2
sg32
g33
sS'_base_class_info'
p71
(lp72
S'textbox.Textfield'
p73
asg36
(dp74
sg38
g9
sg39
g10
sg40
S''
sbsS'TitleFilename'
p75
(ihappydoclib.parseinfo.classinfo
ClassInfo
p76
(dp77
g4
((dp78
(dp79
tp80
sg27
g28
sg29
S''
sg69
(lp81
S'_entry_type'
p82
asg30
g75
sg31
g2
sg32
g33
sg71
(lp83
S'titlefield.TitleText'
p84
asg36
(dp85
sg38
g78
sg39
g79
sg40
S''
sbsS'Filename'
p86
(ihappydoclib.parseinfo.classinfo
ClassInfo
p87
(dp88
g4
((dp89
(dp90
S'auto_complete'
p91
(ihappydoclib.parseinfo.functioninfo
FunctionInfo
p92
(dp93
g4
((dp94
(dp95
tp96
sg17
(dp97
sg19
(S'self'
p98
S'input'
p99
tp100
sg23
(dp101
g99
(NNNtp102
sg98
(NNNtp103
ssg27
g28
sg29
S''
sg30
g91
sg31
g87
sg32
g33
sg36
(dp104
sg38
g94
sg39
g95
sg40
S''
sbstp105
sg27
g28
sg29
S''
sg69
(lp106
sg30
g86
sg31
g2
sg32
g33
sg71
(lp107
S'Autocomplete'
p108
asg36
(dp109
sg38
g89
sg39
g90
sg40
S''
sbs(dp110
S'testme'
p111
(ihappydoclib.parseinfo.functioninfo
FunctionInfo
p112
(dp113
g4
((dp114
(dp115
tp116
sg17
(dp117
sg19
(S'scr'
p118
tp119
sg23
(dp120
g118
(NNNtp121
ssg27
g28
sg29
S''
sg30
g111
sg31
g2
sg32
g33
sg36
(dp122
sg38
g114
sg39
g115
sg40
S''
sbstp123
sS'_import_info'
p124
(ihappydoclib.parseinfo.imports
ImportInfo
p125
(dp126
S'_named_imports'
p127
(dp128
sS'_straight_imports'
p129
(lp130
sbsg27
g28
sg29
S''
sg30
S'autocomplete'
p131
sg31
Nsg32
g33
sg36
(dp132
S'include_comments'
p133
I1
sS'cacheFilePrefix'
p134
S'.happydoc.'
p135
sS'useCache'
p136
I1
sS'docStringFormat'
p137
S'StructuredText'
p138
ssg38
g5
sg39
g110
sg40
S''
sbt.