(S'56acf4ea0c22062aa8f4a375fc3729bb'
p1
(ihappydoclib.parseinfo.moduleinfo
ModuleInfo
p2
(dp3
S'_namespaces'
p4
((dp5
S'Checkbox'
p6
(ihappydoclib.parseinfo.classinfo
ClassInfo
p7
(dp8
g4
((dp9
(dp10
S'calculate_area_needed'
p11
(ihappydoclib.parseinfo.functioninfo
FunctionInfo
p12
(dp13
g4
((dp14
(dp15
tp16
sS'_exception_info'
p17
(dp18
sS'_parameter_names'
p19
(S'self'
p20
tp21
sS'_parameter_info'
p22
(dp23
g20
(NNNtp24
ssS'_filename'
p25
S'/Users/nicholas/mnpyscreen/npyscreen/checkbox.py'
p26
sS'_docstring'
p27
S''
sS'_name'
p28
g11
sS'_parent'
p29
g7
sS'_comment_info'
p30
(dp31
sS'_configuration_values'
p32
(dp33
sS'_class_info'
p34
g14
sS'_function_info'
p35
g15
sS'_comments'
p36
S''
sbsS'update'
p37
(ihappydoclib.parseinfo.functioninfo
FunctionInfo
p38
(dp39
g4
((dp40
(dp41
tp42
sg17
(dp43
sg19
(S'self'
p44
S'clear'
p45
tp46
sg22
(dp47
g44
(NNNtp48
sg45
(I1
S'True'
Ntp49
ssg25
g26
sg27
S''
sg28
g37
sg29
g7
sg30
g31
sg32
(dp50
sg34
g40
sg35
g41
sg36
S''
sbsS'set_up_handlers'
p51
(ihappydoclib.parseinfo.functioninfo
FunctionInfo
p52
(dp53
g4
((dp54
(dp55
tp56
sg17
(dp57
sg19
(S'self'
p58
tp59
sg22
(dp60
g58
(NNNtp61
ssg25
g26
sg27
S''
sg28
g51
sg29
g7
sg30
g31
sg32
(dp62
sg34
g54
sg35
g55
sg36
S''
sbsS'h_select_exit'
p63
(ihappydoclib.parseinfo.functioninfo
FunctionInfo
p64
(dp65
g4
((dp66
(dp67
tp68
sg17
(dp69
sg19
(S'self'
p70
S'ch'
p71
tp72
sg22
(dp73
g70
(NNNtp74
sg71
(NNNtp75
ssg25
g26
sg27
S''
sg28
g63
sg29
g7
sg30
g31
sg32
(dp76
sg34
g66
sg35
g67
sg36
S''
sbsS'__init__'
p77
(ihappydoclib.parseinfo.functioninfo
FunctionInfo
p78
(dp79
g4
((dp80
(dp81
tp82
sg17
(dp83
sg19
(S'self'
p84
S'screen'
p85
S'value'
p86
S'**keywords'
p87
tp88
sg22
(dp89
g84
(NNNtp90
sg87
(NNNtp91
sg85
(NNNtp92
sg86
(I1
S'False'
Ntp93
ssg25
g26
sg27
S''
sg28
g77
sg29
g7
sg30
g31
sg32
(dp94
sg34
g80
sg35
g81
sg36
S''
sbsS'h_toggle'
p95
(ihappydoclib.parseinfo.functioninfo
FunctionInfo
p96
(dp97
g4
((dp98
(dp99
tp100
sg17
(dp101
sg19
(S'self'
p102
S'ch'
p103
tp104
sg22
(dp105
g102
(NNNtp106
sg103
(NNNtp107
ssg25
g26
sg27
S''
sg28
g95
sg29
g7
sg30
g31
sg32
(dp108
sg34
g98
sg35
g99
sg36
S''
sbstp109
sg25
g26
sg27
S''
sS'_class_member_info'
p110
(lp111
S'False_box'
p112
aS'True_box'
p113
asg28
g6
sg29
g2
sg30
g31
sS'_base_class_info'
p114
(lp115
S'Widget'
p116
asg32
(dp117
sg34
g9
sg35
g10
sg36
S''
sbsS'RoundCheckBox'
p118
(ihappydoclib.parseinfo.classinfo
ClassInfo
p119
(dp120
g4
((dp121
(dp122
tp123
sg25
g26
sg27
S''
sg110
(lp124
S'False_box'
p125
aS'True_box'
p126
asg28
g118
sg29
g2
sg30
g31
sg114
(lp127
S'Checkbox'
p128
asg32
(dp129
sg34
g121
sg35
g122
sg36
S''
sbs(dp130
S'testme'
p131
(ihappydoclib.parseinfo.functioninfo
FunctionInfo
p132
(dp133
g4
((dp134
(dp135
tp136
sg17
(dp137
sg19
(S'sa'
p138
tp139
sg22
(dp140
g138
(NNNtp141
ssg25
g26
sg27
S''
sg28
g131
sg29
g2
sg30
g31
sg32
(dp142
sg34
g134
sg35
g135
sg36
S''
sbstp143
sS'_import_info'
p144
(ihappydoclib.parseinfo.imports
ImportInfo
p145
(dp146
S'_named_imports'
p147
(dp148
sS'_straight_imports'
p149
(lp150
sbsg25
g26
sg27
S''
sg28
S'checkbox'
p151
sg29
Nsg30
g31
sg32
(dp152
S'include_comments'
p153
I1
sS'cacheFilePrefix'
p154
S'.happydoc.'
p155
sS'useCache'
p156
I1
sS'docStringFormat'
p157
S'StructuredText'
p158
ssg34
g5
sg35
g130
sg36
S''
sbt.