(S'0c1409b678f1f39b3ee4ab0f49994a1c'
p1
(ihappydoclib.parseinfo.moduleinfo
ModuleInfo
p2
(dp3
S'_namespaces'
p4
((dp5
S'TitleDateCombo'
p6
(ihappydoclib.parseinfo.classinfo
ClassInfo
p7
(dp8
g4
((dp9
(dp10
tp11
sS'_filename'
p12
S'/Users/nicholas/mnpyscreen/npyscreen/datecombo.py'
p13
sS'_docstring'
p14
S''
sS'_class_member_info'
p15
(lp16
S'_entry_type'
p17
asS'_name'
p18
g6
sS'_parent'
p19
g2
sS'_comment_info'
p20
(dp21
sS'_base_class_info'
p22
(lp23
S'titlefield.TitleText'
p24
asS'_configuration_values'
p25
(dp26
sS'_class_info'
p27
g9
sS'_function_info'
p28
g10
sS'_comments'
p29
S''
sbsS'DateCombo'
p30
(ihappydoclib.parseinfo.classinfo
ClassInfo
p31
(dp32
g4
((dp33
(dp34
S'edit'
p35
(ihappydoclib.parseinfo.functioninfo
FunctionInfo
p36
(dp37
g4
((dp38
(dp39
tp40
sS'_exception_info'
p41
(dp42
sS'_parameter_names'
p43
(S'self'
p44
tp45
sS'_parameter_info'
p46
(dp47
g44
(NNNtp48
ssg12
g13
sg14
S''
sg18
g35
sg19
g31
sg20
g21
sg25
(dp49
sg27
g38
sg28
g39
sg29
S''
sbsS'update'
p50
(ihappydoclib.parseinfo.functioninfo
FunctionInfo
p51
(dp52
g4
((dp53
(dp54
tp55
sg41
(dp56
sg43
(S'self'
p57
S'**keywords'
p58
tp59
sg46
(dp60
g57
(NNNtp61
sg58
(NNNtp62
ssg12
g13
sg14
S''
sg18
g50
sg19
g31
sg20
g21
sg25
(dp63
sg27
g53
sg28
g54
sg29
S''
sbsS'set_up_handlers'
p64
(ihappydoclib.parseinfo.functioninfo
FunctionInfo
p65
(dp66
g4
((dp67
(dp68
tp69
sg41
(dp70
sg43
(S'self'
p71
tp72
sg46
(dp73
g71
(NNNtp74
ssg12
g13
sg14
S''
sg18
g64
sg19
g31
sg20
g21
sg25
(dp75
sg27
g67
sg28
g68
sg29
S''
sbsS'h_change_value'
p76
(ihappydoclib.parseinfo.functioninfo
FunctionInfo
p77
(dp78
g4
((dp79
(dp80
tp81
sg41
(dp82
sg43
(S'self'
p83
S'*arg'
p84
tp85
sg46
(dp86
g83
(NNNtp87
sg84
(NNNtp88
ssg12
g13
sg14
S''
sg18
g76
sg19
g31
sg20
g21
sg25
(dp89
sg27
g79
sg28
g80
sg29
S''
sbsS'_print'
p90
(ihappydoclib.parseinfo.functioninfo
FunctionInfo
p91
(dp92
g4
((dp93
(dp94
tp95
sg41
(dp96
sg43
(S'self'
p97
tp98
sg46
(dp99
g97
(NNNtp100
ssg12
g13
sg14
S''
sg18
g90
sg19
g31
sg20
g21
sg25
(dp101
sg27
g93
sg28
g94
sg29
S''
sbsS'display_value'
p102
(ihappydoclib.parseinfo.functioninfo
FunctionInfo
p103
(dp104
g4
((dp105
(dp106
tp107
sg41
(dp108
sg43
(S'self'
p109
S'vl'
p110
tp111
sg46
(dp112
g109
(NNNtp113
sg110
(NNNtp114
ssg12
g13
sg14
S''
sg18
g102
sg19
g31
sg20
g21
sg25
(dp115
sg27
g105
sg28
g106
sg29
S''
sbsS'__init__'
p116
(ihappydoclib.parseinfo.functioninfo
FunctionInfo
p117
(dp118
g4
((dp119
(dp120
tp121
sg41
(dp122
sg43
(S'self'
p123
S'screen'
p124
S'allowPastDate'
p125
S'allowTodaysDate'
p126
S'**keywords'
p127
tp128
sg46
(dp129
g125
(I1
S'True'
Ntp130
sg123
(NNNtp131
sg126
(I1
S'True'
Ntp132
sg124
(NNNtp133
sg127
(NNNtp134
ssg12
g13
sg14
S''
sg18
g116
sg19
g31
sg20
g21
sg25
(dp135
sg27
g119
sg28
g120
sg29
S''
sbstp136
sg12
g13
sg14
S''
sg15
(lp137
sg18
g30
sg19
g2
sg20
g21
sg22
(lp138
S'textbox.Textfield'
p139
aS'monthbox.DateEntryBase'
p140
asg25
(dp141
sg27
g33
sg28
g34
sg29
S''
sbs(dp142
S'testing'
p143
(ihappydoclib.parseinfo.functioninfo
FunctionInfo
p144
(dp145
g4
((dp146
(dp147
tp148
sg41
(dp149
sg43
(S'src'
p150
tp151
sg46
(dp152
g150
(NNNtp153
ssg12
g13
sg14
S''
sg18
g143
sg19
g2
sg20
g21
sg25
(dp154
sg27
g146
sg28
g147
sg29
S''
sbstp155
sS'_import_info'
p156
(ihappydoclib.parseinfo.imports
ImportInfo
p157
(dp158
S'_named_imports'
p159
(dp160
sS'_straight_imports'
p161
(lp162
sbsg12
g13
sg14
S''
sg18
S'datecombo'
p163
sg19
Nsg20
g21
sg25
(dp164
S'include_comments'
p165
I1
sS'cacheFilePrefix'
p166
S'.happydoc.'
p167
sS'useCache'
p168
I1
sS'docStringFormat'
p169
S'StructuredText'
p170
ssg27
g5
sg28
g142
sg29
S''
sbt.