(S'c20aad493c4d243519b81e6c514a1157'
p1
(ihappydoclib.parseinfo.moduleinfo
ModuleInfo
p2
(dp3
S'_namespaces'
p4
((dp5
S'TitleForm'
p6
(ihappydoclib.parseinfo.classinfo
ClassInfo
p7
(dp8
g4
((dp9
(dp10
S'draw_form'
p11
(ihappydoclib.parseinfo.functioninfo
FunctionInfo
p12
(dp13
g4
((dp14
(dp15
tp16
sS'_exception_info'
p17
(dp18
sS'_parameter_names'
p19
(S'self'
p20
tp21
sS'_parameter_info'
p22
(dp23
g20
(NNNtp24
ssS'_filename'
p25
S'npyscreen/Form.py'
p26
sS'_docstring'
p27
S''
sS'_name'
p28
g11
sS'_parent'
p29
g7
sS'_comment_info'
p30
(dp31
(S'Form'
p32
S'on_screen'
tp33
S' is the widget in editw on sreen at the moment?\n if not, alter screen so that it is.\n'
p34
s(g32
S'set_up_exit_condition_handlers'
tp35
S" What happens when widgets exit?\n each widget will set it's how_exited value: this should\n be used to look up the following table.\n"
p36
ssS'_configuration_values'
p37
(dp38
sS'_class_info'
p39
g14
sS'_function_info'
p40
g15
sS'_comments'
p41
S''
sbstp42
sg25
g26
sg27
S''
sS'_class_member_info'
p43
(lp44
sg28
g6
sg29
g2
sg30
g31
sS'_base_class_info'
p45
(lp46
sg37
(dp47
sg39
g9
sg40
g10
sg41
S''
sbsS'SplitForm'
p48
(ihappydoclib.parseinfo.classinfo
ClassInfo
p49
(dp50
g4
((dp51
(dp52
S'get_half_way'
p53
(ihappydoclib.parseinfo.functioninfo
FunctionInfo
p54
(dp55
g4
((dp56
(dp57
tp58
sg17
(dp59
sg19
(S'self'
p60
tp61
sg22
(dp62
g60
(NNNtp63
ssg25
g26
sg27
S''
sg28
g53
sg29
g49
sg30
g31
sg37
(dp64
sg39
g56
sg40
g57
sg41
S''
sbsS'draw_form'
p65
(ihappydoclib.parseinfo.functioninfo
FunctionInfo
p66
(dp67
g4
((dp68
(dp69
tp70
sg17
(dp71
sg19
(S'self'
p72
tp73
sg22
(dp74
g72
(NNNtp75
ssg25
g26
sg27
S''
sg28
g65
sg29
g49
sg30
g31
sg37
(dp76
sg39
g68
sg40
g69
sg41
S''
sbstp77
sg25
g26
sg27
S''
sg43
(lp78
sg28
g48
sg29
g2
sg30
g31
sg45
(lp79
sg37
(dp80
sg39
g51
sg40
g52
sg41
S''
sbsS'TitleFooterForm'
p81
(ihappydoclib.parseinfo.classinfo
ClassInfo
p82
(dp83
g4
((dp84
(dp85
S'draw_form'
p86
(ihappydoclib.parseinfo.functioninfo
FunctionInfo
p87
(dp88
g4
((dp89
(dp90
tp91
sg17
(dp92
sg19
(S'self'
p93
tp94
sg22
(dp95
g93
(NNNtp96
ssg25
g26
sg27
S''
sg28
g86
sg29
g82
sg30
g31
sg37
(dp97
sg39
g89
sg40
g90
sg41
S''
sbstp98
sg25
g26
sg27
S''
sg43
(lp99
sg28
g81
sg29
g2
sg30
g31
sg45
(lp100
sg37
(dp101
sg39
g84
sg40
g85
sg41
S''
sbsS'Form'
p102
(ihappydoclib.parseinfo.classinfo
ClassInfo
p103
(dp104
g4
((dp105
(dp106
S'find_next_editable'
p107
(ihappydoclib.parseinfo.functioninfo
FunctionInfo
p108
(dp109
g4
((dp110
(dp111
tp112
sg17
(dp113
sg19
(S'self'
p114
S'*args'
p115
tp116
sg22
(dp117
g115
(NNNtp118
sg114
(NNNtp119
ssg25
g26
sg27
S''
sg28
g107
sg29
g103
sg30
g31
sg37
(dp120
sg39
g110
sg40
g111
sg41
S''
sbsS'add_menu'
p121
(ihappydoclib.parseinfo.functioninfo
FunctionInfo
p122
(dp123
g4
((dp124
(dp125
tp126
sg17
(dp127
sg19
(S'self'
p128
S'menu'
p129
S'key'
p130
S'*args'
p131
S'*keywords'
p132
tp133
sg22
(dp134
g131
(NNNtp135
sg129
(I1
NNtp136
sg128
(NNNtp137
sg130
(I1
NNtp138
sg132
(NNNtp139
ssg25
g26
sg27
S''
sg28
g121
sg29
g103
sg30
g31
sg37
(dp140
sg39
g124
sg40
g125
sg41
S''
sbsS'add_widget'
p141
(ihappydoclib.parseinfo.functioninfo
FunctionInfo
p142
(dp143
g4
((dp144
(dp145
tp146
sg17
(dp147
sg19
(S'self'
p148
S'widgetClass'
p149
S'max_height'
p150
S'rely'
p151
S'relx'
p152
S'*args'
p153
S'*keywords'
p154
tp155
sg22
(dp156
g151
(I1
NNtp157
sg152
(I1
NNtp158
sg149
(NNNtp159
sg153
(NNNtp160
sg148
(NNNtp161
sg150
(I1
NNtp162
sg154
(NNNtp163
ssg25
g26
sg27
S''
sg28
g141
sg29
g103
sg30
g31
sg37
(dp164
sg39
g144
sg40
g145
sg41
S''
sbsS'on_screen'
p165
(ihappydoclib.parseinfo.functioninfo
FunctionInfo
p166
(dp167
g4
((dp168
(dp169
tp170
sg17
(dp171
sg19
(S'self'
p172
tp173
sg22
(dp174
g172
(NNNtp175
ssg25
g26
sg27
S''
sg28
g165
sg29
g103
sg30
g31
sg37
(dp176
sg39
g168
sg40
g169
sg41
g34
sbsS'menuOfMenus'
p177
(ihappydoclib.parseinfo.functioninfo
FunctionInfo
p178
(dp179
g4
((dp180
(dp181
tp182
sg17
(dp183
sg19
(S'self'
p184
S'*args'
p185
S'*keywords'
p186
tp187
sg22
(dp188
g185
(NNNtp189
sg184
(NNNtp190
sg186
(NNNtp191
ssg25
g26
sg27
S''
sg28
g177
sg29
g103
sg30
g31
sg37
(dp192
sg39
g180
sg40
g181
sg41
S''
sbsS'draw_form'
p193
(ihappydoclib.parseinfo.functioninfo
FunctionInfo
p194
(dp195
g4
((dp196
(dp197
tp198
sg17
(dp199
sg19
(S'self'
p200
tp201
sg22
(dp202
g200
(NNNtp203
ssg25
g26
sg27
S''
sg28
g193
sg29
g103
sg30
g31
sg37
(dp204
sg39
g196
sg40
g197
sg41
S''
sbsS'display'
p205
(ihappydoclib.parseinfo.functioninfo
FunctionInfo
p206
(dp207
g4
((dp208
(dp209
tp210
sg17
(dp211
sg19
(S'self'
p212
tp213
sg22
(dp214
g212
(NNNtp215
ssg25
g26
sg27
S''
sg28
g205
sg29
g103
sg30
g31
sg37
(dp216
sg39
g208
sg40
g209
sg41
S''
sbsS'edit'
p217
(ihappydoclib.parseinfo.functioninfo
FunctionInfo
p218
(dp219
g4
((dp220
(dp221
tp222
sg17
(dp223
sg19
(S'self'
p224
tp225
sg22
(dp226
g224
(NNNtp227
ssg25
g26
sg27
S''
sg28
g217
sg29
g103
sg30
g31
sg37
(dp228
sg39
g220
sg40
g221
sg41
S''
sbsS'create'
p229
(ihappydoclib.parseinfo.functioninfo
FunctionInfo
p230
(dp231
g4
((dp232
(dp233
tp234
sg17
(dp235
sg19
(S'self'
p236
tp237
sg22
(dp238
g236
(NNNtp239
ssg25
g26
sg27
S''
sg28
g229
sg29
g103
sg30
g31
sg37
(dp240
sg39
g232
sg40
g233
sg41
S''
sbsS'find_previous_editable'
p241
(ihappydoclib.parseinfo.functioninfo
FunctionInfo
p242
(dp243
g4
((dp244
(dp245
tp246
sg17
(dp247
sg19
(S'self'
p248
S'*args'
p249
tp250
sg22
(dp251
g249
(NNNtp252
sg248
(NNNtp253
ssg25
g26
sg27
S''
sg28
g241
sg29
g103
sg30
g31
sg37
(dp254
sg39
g244
sg40
g245
sg41
S''
sbsS'h_display'
p255
(ihappydoclib.parseinfo.functioninfo
FunctionInfo
p256
(dp257
g4
((dp258
(dp259
tp260
sg17
(dp261
sg19
(S'self'
p262
S'input'
p263
tp264
sg22
(dp265
g263
(NNNtp266
sg262
(NNNtp267
ssg25
g26
sg27
S''
sg28
g255
sg29
g103
sg30
g31
sg37
(dp268
sg39
g258
sg40
g259
sg41
S''
sbsS'handle_exiting_widgets'
p269
(ihappydoclib.parseinfo.functioninfo
FunctionInfo
p270
(dp271
g4
((dp272
(dp273
tp274
sg17
(dp275
sg19
(S'self'
p276
S'condition'
p277
tp278
sg22
(dp279
g276
(NNNtp280
sg277
(NNNtp281
ssg25
g26
sg27
S''
sg28
g269
sg29
g103
sg30
g31
sg37
(dp282
sg39
g272
sg40
g273
sg41
S''
sbsS'adjust_widgets'
p283
(ihappydoclib.parseinfo.functioninfo
FunctionInfo
p284
(dp285
g4
((dp286
(dp287
tp288
sg17
(dp289
sg19
(S'self'
p290
tp291
sg22
(dp292
g290
(NNNtp293
ssg25
g26
sg27
S''
sg28
g283
sg29
g103
sg30
g31
sg37
(dp294
sg39
g286
sg40
g287
sg41
S''
sbsS'do_nothing'
p295
(ihappydoclib.parseinfo.functioninfo
FunctionInfo
p296
(dp297
g4
((dp298
(dp299
tp300
sg17
(dp301
sg19
(S'self'
p302
S'*args'
p303
S'*keywords'
p304
tp305
sg22
(dp306
g303
(NNNtp307
sg302
(NNNtp308
sg304
(NNNtp309
ssg25
g26
sg27
S''
sg28
g295
sg29
g103
sg30
g31
sg37
(dp310
sg39
g298
sg40
g299
sg41
S''
sbsS'h_display_help'
p311
(ihappydoclib.parseinfo.functioninfo
FunctionInfo
p312
(dp313
g4
((dp314
(dp315
tp316
sg17
(dp317
sg19
(S'self'
p318
S'input'
p319
tp320
sg22
(dp321
g319
(NNNtp322
sg318
(NNNtp323
ssg25
g26
sg27
S''
sg28
g311
sg29
g103
sg30
g31
sg37
(dp324
sg39
g314
sg40
g315
sg41
S''
sbsS'while_editing'
p325
(ihappydoclib.parseinfo.functioninfo
FunctionInfo
p326
(dp327
g4
((dp328
(dp329
tp330
sg17
(dp331
sg19
(S'self'
p332
S'*args'
p333
S'*keywords'
p334
tp335
sg22
(dp336
g333
(NNNtp337
sg332
(NNNtp338
sg334
(NNNtp339
ssg25
g26
sg27
S''
sg28
g325
sg29
g103
sg30
g31
sg37
(dp340
sg39
g328
sg40
g329
sg41
S''
sbsS'set_up_handlers'
p341
(ihappydoclib.parseinfo.functioninfo
FunctionInfo
p342
(dp343
g4
((dp344
(dp345
tp346
sg17
(dp347
sg19
(S'self'
p348
tp349
sg22
(dp350
g348
(NNNtp351
ssg25
g26
sg27
S''
sg28
g341
sg29
g103
sg30
g31
sg37
(dp352
sg39
g344
sg40
g345
sg41
S''
sbsS'set_up_exit_condition_handlers'
p353
(ihappydoclib.parseinfo.functioninfo
FunctionInfo
p354
(dp355
g4
((dp356
(dp357
tp358
sg17
(dp359
sg19
(S'self'
p360
tp361
sg22
(dp362
g360
(NNNtp363
ssg25
g26
sg27
S''
sg28
g353
sg29
g103
sg30
g31
sg37
(dp364
sg39
g356
sg40
g357
sg41
g36
sbsS'__init__'
p365
(ihappydoclib.parseinfo.functioninfo
FunctionInfo
p366
(dp367
g4
((dp368
(dp369
tp370
sg17
(dp371
sg19
(S'self'
p372
S'name'
p373
S'framed'
p374
S'help'
p375
S'*args'
p376
S'*keywords'
p377
tp378
sg22
(dp379
g375
(I1
NNtp380
sg376
(NNNtp381
sg372
(NNNtp382
sg374
(I1
NNtp383
sg377
(NNNtp384
sg373
(I1
NNtp385
ssg25
g26
sg27
S''
sg28
g365
sg29
g103
sg30
g31
sg37
(dp386
sg39
g368
sg40
g369
sg41
S''
sbsS'useable_space'
p387
(ihappydoclib.parseinfo.functioninfo
FunctionInfo
p388
(dp389
g4
((dp390
(dp391
tp392
sg17
(dp393
sg19
(S'self'
p394
S'rely'
p395
S'relx'
p396
tp397
sg22
(dp398
g394
(NNNtp399
sg396
(I1
NNtp400
sg395
(I1
NNtp401
ssg25
g26
sg27
S''
sg28
g387
sg29
g103
sg30
g31
sg37
(dp402
sg39
g390
sg40
g391
sg41
S''
sbstp403
sg25
g26
sg27
S''
sg43
(lp404
sg28
g102
sg29
g2
sg30
g31
sg45
(lp405
sg37
(dp406
sg39
g105
sg40
g106
sg41
S''
sbs(dp407
S'testmem'
p408
(ihappydoclib.parseinfo.functioninfo
FunctionInfo
p409
(dp410
g4
((dp411
(dp412
tp413
sg17
(dp414
sg19
(S'sa'
p415
tp416
sg22
(dp417
g415
(NNNtp418
ssg25
g26
sg27
S''
sg28
g408
sg29
g2
sg30
g31
sg37
(dp419
sg39
g411
sg40
g412
sg41
S''
sbsS'testme'
p420
(ihappydoclib.parseinfo.functioninfo
FunctionInfo
p421
(dp422
g4
((dp423
(dp424
tp425
sg17
(dp426
sg19
(S'sa'
p427
tp428
sg22
(dp429
g427
(NNNtp430
ssg25
g26
sg27
S''
sg28
g420
sg29
g2
sg30
g31
sg37
(dp431
sg39
g423
sg40
g424
sg41
S''
sbstp432
sS'_import_info'
p433
(ihappydoclib.parseinfo.imports
ImportInfo
p434
(dp435
S'_named_imports'
p436
(dp437
sS'_straight_imports'
p438
(lp439
sbsg25
g26
sg27
S''
sg28
S'Form'
p440
sg29
Nsg30
g31
sg37
(dp441
S'include_comments'
p442
I1
sS'cacheFilePrefix'
p443
S'.happydoc.'
p444
sS'useCache'
p445
I1
sS'docStringFormat'
p446
S'StructuredText'
p447
ssg39
g5
sg40
g407
sg41
S''
sbt.