(S'e28cedf75279722810af9cbce9dc657a'
p1
(ihappydoclib.parseinfo.moduleinfo
ModuleInfo
p2
(dp3
S'_namespaces'
p4
((dp5
S'MiniButton'
p6
(ihappydoclib.parseinfo.classinfo
ClassInfo
p7
(dp8
g4
((dp9
(dp10
S'calculate_area_needed'
p11
(ihappydoclib.parseinfo.functioninfo
FunctionInfo
p12
(dp13
g4
((dp14
(dp15
tp16
sS'_exception_info'
p17
(dp18
sS'_parameter_names'
p19
(S'self'
p20
tp21
sS'_parameter_info'
p22
(dp23
g20
(NNNtp24
ssS'_filename'
p25
S'/Users/nicholas/mnpyscreen/npyscreen/button.py'
p26
sS'_docstring'
p27
S''
sS'_name'
p28
g11
sS'_parent'
p29
g7
sS'_comment_info'
p30
(dp31
sS'_configuration_values'
p32
(dp33
sS'_class_info'
p34
g14
sS'_function_info'
p35
g15
sS'_comments'
p36
S''
sbsS'update'
p37
(ihappydoclib.parseinfo.functioninfo
FunctionInfo
p38
(dp39
g4
((dp40
(dp41
tp42
sg17
(dp43
sg19
(S'self'
p44
S'clear'
p45
tp46
sg22
(dp47
g44
(NNNtp48
sg45
(I1
S'True'
Ntp49
ssg25
g26
sg27
S''
sg28
g37
sg29
g7
sg30
g31
sg32
(dp50
sg34
g40
sg35
g41
sg36
S''
sbsS'__init__'
p51
(ihappydoclib.parseinfo.functioninfo
FunctionInfo
p52
(dp53
g4
((dp54
(dp55
tp56
sg17
(dp57
sg19
(S'self'
p58
S'screen'
p59
S'name'
p60
S'*args'
p61
S'*keywords'
p62
tp63
sg22
(dp64
g61
(NNNtp65
sg58
(NNNtp66
sg62
(NNNtp67
sg59
(NNNtp68
sg60
(I1
S"'Button'"
Ntp69
ssg25
g26
sg27
S''
sg28
g51
sg29
g7
sg30
g31
sg32
(dp70
sg34
g54
sg35
g55
sg36
S''
sbstp71
sg25
g26
sg27
S''
sS'_class_member_info'
p72
(lp73
sg28
g6
sg29
g2
sg30
g31
sS'_base_class_info'
p74
(lp75
S'checkbox.Checkbox'
p76
asg32
(dp77
sg34
g9
sg35
g10
sg36
S''
sbs(dp78
S'testme'
p79
(ihappydoclib.parseinfo.functioninfo
FunctionInfo
p80
(dp81
g4
((dp82
(dp83
tp84
sg17
(dp85
sg19
(S'sa'
p86
tp87
sg22
(dp88
g86
(NNNtp89
ssg25
g26
sg27
S''
sg28
g79
sg29
g2
sg30
g31
sg32
(dp90
sg34
g82
sg35
g83
sg36
S''
sbstp91
sS'_import_info'
p92
(ihappydoclib.parseinfo.imports
ImportInfo
p93
(dp94
S'_named_imports'
p95
(dp96
sS'_straight_imports'
p97
(lp98
sbsg25
g26
sg27
S''
sg28
S'button'
p99
sg29
Nsg30
g31
sg32
(dp100
S'include_comments'
p101
I1
sS'cacheFilePrefix'
p102
S'.happydoc.'
p103
sS'useCache'
p104
I1
sS'docStringFormat'
p105
S'StructuredText'
p106
ssg34
g5
sg35
g78
sg36
S''
sbt.